; Function Attrs: nounwind uwtable
define internal fastcc void @_pack_suspend_msg(ptr noundef readonly captures(none) %0, ptr noundef %1, i16 noundef zeroext %2) unnamed_addr #0 {
  %4 = icmp ugt i16 %2, 10239
  br i1 %4, label %5, label %16

5:                                                ; preds = %3
  %6 = load i16, ptr %0, align 8
  tail call void @pack16(i16 noundef zeroext %6, ptr noundef %1) #7
  %7 = getelementptr inbounds nuw i8, ptr %0, i64 4
  %8 = load i32, ptr %7, align 4
  tail call void @pack32(i32 noundef %8, ptr noundef %1) #7
  %9 = getelementptr inbounds nuw i8, ptr %0, i64 8
  %10 = load ptr, ptr %9, align 8
  %.not = icmp eq ptr %10, null
  br i1 %.not, label %15, label %11

11:                                               ; preds = %5
  %12 = tail call i64 @strlen(ptr noundef nonnull dereferenceable(1) %10) #8
  %13 = trunc i64 %12 to i32
  %14 = add i32 %13, 1
  br label %15

15:                                               ; preds = %11, %5
  %.0 = phi i32 [ %14, %11 ], [ 0, %5 ]
  tail call void @packmem(ptr noundef %10, i32 noundef %.0, ptr noundef %1) #7
  br label %16

16:                                               ; preds = %15, %3
  ret void
}